target datalayout = "e-m:e-p270:32:32-p271:32:32-p272:64:64-i64:64-i128:128-f80:128-n8:16:32:64-S128"
target triple = "x86_64-unknown-linux-gnu"

%"class.rocksdb::Slice" = type { ptr, i64 }
%"class.rocksdb::BlockHandle" = type { i64, i64 }
%"class.rocksdb::InternalKeyComparator" = type { %"class.rocksdb::CompareInterface", %"class.rocksdb::UserComparatorWrapper" }
%"class.rocksdb::CompareInterface" = type { ptr }
%"class.rocksdb::UserComparatorWrapper" = type { ptr }
%"class.rocksdb::Status" = type { i8, i8, i8, i8, i8, i8, %"class.std::unique_ptr" }
%"class.std::unique_ptr" = type { %"struct.std::__uniq_ptr_data" }
%"struct.std::__uniq_ptr_data" = type { %"class.std::__uniq_ptr_impl" }
%"class.std::__uniq_ptr_impl" = type { %"class.std::tuple" }
%"class.std::tuple" = type { %"struct.std::_Tuple_impl" }
%"struct.std::_Tuple_impl" = type { %"struct.std::_Head_base.13" }
%"struct.std::_Head_base.13" = type { ptr }
%"class.rocksdb::BlockBasedTable" = type { %"class.rocksdb::TableReader", ptr, ptr }
%"class.rocksdb::TableReader" = type { ptr }
%"struct.rocksdb::BlockBasedTable::Rep" = type { ptr, ptr, %"struct.rocksdb::BlockBasedTableOptions", ptr, ptr, %"class.rocksdb::Status", %"class.std::unique_ptr.14", %"class.rocksdb::OffsetableCacheKey", %"struct.rocksdb::PersistentCacheOptions", %"class.rocksdb::Footer", %"class.std::unique_ptr.22", %"class.std::unique_ptr.30", %"class.std::unique_ptr.38", i32, %"class.rocksdb::BlockHandle", %"class.rocksdb::BlockHandle", %"class.std::shared_ptr.46", %"class.rocksdb::BlockHandle", i8, i8, i8, %"class.std::shared_ptr.49", %"class.std::shared_ptr.52", %"struct.rocksdb::BlockCreateContext", i64, i64, i32, %"class.rocksdb::Slice", %"class.rocksdb::Slice", i8, i8, i8, i8, i8, i8, i8, %"class.std::unique_ptr.55" }
%"struct.rocksdb::BlockBasedTableOptions" = type { %"class.std::shared_ptr", i8, i8, i8, i8, %"struct.rocksdb::MetadataCacheOptions", i8, i8, double, i8, i8, %"class.std::shared_ptr.0", %"class.std::shared_ptr.3", i64, i32, i32, i32, i64, %"struct.rocksdb::CacheUsageOptions", i8, i8, i8, %"class.std::shared_ptr.9", i8, i8, i8, i32, i32, i8, i8, i8, i64, i8, i64, i64 }
%"class.std::shared_ptr" = type { %"class.std::__shared_ptr" }
%"class.std::__shared_ptr" = type { ptr, %"class.std::__shared_count" }
%"class.std::__shared_count" = type { ptr }
%"struct.rocksdb::MetadataCacheOptions" = type { i32, i32, i32 }
%"class.std::shared_ptr.0" = type { %"class.std::__shared_ptr.1" }
%"class.std::__shared_ptr.1" = type { ptr, %"class.std::__shared_count" }
%"class.std::shared_ptr.3" = type { %"class.std::__shared_ptr.4" }
%"class.std::__shared_ptr.4" = type { ptr, %"class.std::__shared_count" }
%"struct.rocksdb::CacheUsageOptions" = type { %"struct.rocksdb::CacheEntryRoleOptions", %"class.std::map" }
%"struct.rocksdb::CacheEntryRoleOptions" = type { i32 }
%"class.std::map" = type { %"class.std::_Rb_tree" }
%"class.std::_Rb_tree" = type { %"struct.std::_Rb_tree<rocksdb::CacheEntryRole, std::pair<const rocksdb::CacheEntryRole, rocksdb::CacheEntryRoleOptions>, std::_Select1st<std::pair<const rocksdb::CacheEntryRole, rocksdb::CacheEntryRoleOptions>>, std::less<rocksdb::CacheEntryRole>>::_Rb_tree_impl" }
%"struct.std::_Rb_tree<rocksdb::CacheEntryRole, std::pair<const rocksdb::CacheEntryRole, rocksdb::CacheEntryRoleOptions>, std::_Select1st<std::pair<const rocksdb::CacheEntryRole, rocksdb::CacheEntryRoleOptions>>, std::less<rocksdb::CacheEntryRole>>::_Rb_tree_impl" = type { %"struct.std::_Rb_tree_key_compare", %"struct.std::_Rb_tree_header" }
%"struct.std::_Rb_tree_key_compare" = type { %"struct.std::less" }
%"struct.std::less" = type { i8 }
%"struct.std::_Rb_tree_header" = type { %"struct.std::_Rb_tree_node_base", i64 }
%"struct.std::_Rb_tree_node_base" = type { i32, ptr, ptr, ptr }
%"class.std::shared_ptr.9" = type { %"class.std::__shared_ptr.10" }
%"class.std::__shared_ptr.10" = type { ptr, %"class.std::__shared_count" }
%"class.std::unique_ptr.14" = type { %"struct.std::__uniq_ptr_data.15" }
%"struct.std::__uniq_ptr_data.15" = type { %"class.std::__uniq_ptr_impl.16" }
%"class.std::__uniq_ptr_impl.16" = type { %"class.std::tuple.17" }
%"class.std::tuple.17" = type { %"struct.std::_Tuple_impl.18" }
%"struct.std::_Tuple_impl.18" = type { %"struct.std::_Head_base.21" }
%"struct.std::_Head_base.21" = type { ptr }
%"class.rocksdb::OffsetableCacheKey" = type { %"class.rocksdb::CacheKey" }
%"class.rocksdb::CacheKey" = type { i64, i64 }
%"struct.rocksdb::PersistentCacheOptions" = type { %"class.std::shared_ptr.3", %"class.rocksdb::OffsetableCacheKey", ptr }
%"class.rocksdb::Footer" = type <{ i64, i32, i32, %"class.rocksdb::BlockHandle", %"class.rocksdb::BlockHandle", i32, i8, [3 x i8] }>
%"class.std::unique_ptr.22" = type { %"struct.std::__uniq_ptr_data.23" }
%"struct.std::__uniq_ptr_data.23" = type { %"class.std::__uniq_ptr_impl.24" }
%"class.std::__uniq_ptr_impl.24" = type { %"class.std::tuple.25" }
%"class.std::tuple.25" = type { %"struct.std::_Tuple_impl.26" }
%"struct.std::_Tuple_impl.26" = type { %"struct.std::_Head_base.29" }
%"struct.std::_Head_base.29" = type { ptr }
%"class.std::unique_ptr.30" = type { %"struct.std::__uniq_ptr_data.31" }
%"struct.std::__uniq_ptr_data.31" = type { %"class.std::__uniq_ptr_impl.32" }
%"class.std::__uniq_ptr_impl.32" = type { %"class.std::tuple.33" }
%"class.std::tuple.33" = type { %"struct.std::_Tuple_impl.34" }
%"struct.std::_Tuple_impl.34" = type { %"struct.std::_Head_base.37" }
%"struct.std::_Head_base.37" = type { ptr }
%"class.std::unique_ptr.38" = type { %"struct.std::__uniq_ptr_data.39" }
%"struct.std::__uniq_ptr_data.39" = type { %"class.std::__uniq_ptr_impl.40" }
%"class.std::__uniq_ptr_impl.40" = type { %"class.std::tuple.41" }
%"class.std::tuple.41" = type { %"struct.std::_Tuple_impl.42" }
%"struct.std::_Tuple_impl.42" = type { %"struct.std::_Head_base.45" }
%"struct.std::_Head_base.45" = type { ptr }
%"class.std::shared_ptr.46" = type { %"class.std::__shared_ptr.47" }
%"class.std::__shared_ptr.47" = type { ptr, %"class.std::__shared_count" }
%"class.std::shared_ptr.49" = type { %"class.std::__shared_ptr.50" }
%"class.std::__shared_ptr.50" = type { ptr, %"class.std::__shared_count" }
%"class.std::shared_ptr.52" = type { %"class.std::__shared_ptr.53" }
%"class.std::__shared_ptr.53" = type { ptr, %"class.std::__shared_count" }
%"struct.rocksdb::BlockCreateContext" = type { ptr, ptr, ptr, ptr, ptr, i32, i8, i8, i8, i8 }
%"class.std::unique_ptr.55" = type { %"struct.std::__uniq_ptr_data.56" }
%"struct.std::__uniq_ptr_data.56" = type { %"class.std::__uniq_ptr_impl.57" }
%"class.std::__uniq_ptr_impl.57" = type { %"class.std::tuple.58" }
%"class.std::tuple.58" = type { %"struct.std::_Tuple_impl.59" }
%"struct.std::_Tuple_impl.59" = type { %"struct.std::_Head_base.62" }
%"struct.std::_Head_base.62" = type { ptr }
%"class.std::vector.75" = type { %"struct.std::_Vector_base.76" }
%"struct.std::_Vector_base.76" = type { %"struct.std::_Vector_base<rocksdb::DbPath, std::allocator<rocksdb::DbPath>>::_Vector_impl" }
%"struct.std::_Vector_base<rocksdb::DbPath, std::allocator<rocksdb::DbPath>>::_Vector_impl" = type { %"struct.std::_Vector_base<rocksdb::DbPath, std::allocator<rocksdb::DbPath>>::_Vector_impl_data" }
%"struct.std::_Vector_base<rocksdb::DbPath, std::allocator<rocksdb::DbPath>>::_Vector_impl_data" = type { ptr, ptr, ptr }
%"struct.rocksdb::ImmutableCFOptions" = type <{ i8, i8, [6 x i8], ptr, %"class.rocksdb::InternalKeyComparator", %"class.std::shared_ptr.100", ptr, %"class.std::shared_ptr.103", i32, i32, i64, i8, [7 x i8], ptr, %"class.std::shared_ptr.106", %"class.std::shared_ptr.109", %"class.std::vector.112", i32, i8, i8, [2 x i8], i32, i8, i8, i8, i8, i64, i64, %"class.std::shared_ptr.49", %"class.std::vector.75", %"class.std::shared_ptr.117", %"class.std::shared_ptr.120", %"class.std::shared_ptr.0", i8, [7 x i8] }>
%"class.std::shared_ptr.100" = type { %"class.std::__shared_ptr.101" }
%"class.std::__shared_ptr.101" = type { ptr, %"class.std::__shared_count" }
%"class.std::shared_ptr.103" = type { %"class.std::__shared_ptr.104" }
%"class.std::__shared_ptr.104" = type { ptr, %"class.std::__shared_count" }
%"class.std::shared_ptr.106" = type { %"class.std::__shared_ptr.107" }
%"class.std::__shared_ptr.107" = type { ptr, %"class.std::__shared_count" }
%"class.std::shared_ptr.109" = type { %"class.std::__shared_ptr.110" }
%"class.std::__shared_ptr.110" = type { ptr, %"class.std::__shared_count" }
%"class.std::vector.112" = type { %"struct.std::_Vector_base.113" }
%"struct.std::_Vector_base.113" = type { %"struct.std::_Vector_base<std::shared_ptr<rocksdb::TablePropertiesCollectorFactory>, std::allocator<std::shared_ptr<rocksdb::TablePropertiesCollectorFactory>>>::_Vector_impl" }
%"struct.std::_Vector_base<std::shared_ptr<rocksdb::TablePropertiesCollectorFactory>, std::allocator<std::shared_ptr<rocksdb::TablePropertiesCollectorFactory>>>::_Vector_impl" = type { %"struct.std::_Vector_base<std::shared_ptr<rocksdb::TablePropertiesCollectorFactory>, std::allocator<std::shared_ptr<rocksdb::TablePropertiesCollectorFactory>>>::_Vector_impl_data" }
%"struct.std::_Vector_base<std::shared_ptr<rocksdb::TablePropertiesCollectorFactory>, std::allocator<std::shared_ptr<rocksdb::TablePropertiesCollectorFactory>>>::_Vector_impl_data" = type { ptr, ptr, ptr }
%"class.std::shared_ptr.117" = type { %"class.std::__shared_ptr.118" }
%"class.std::__shared_ptr.118" = type { ptr, %"class.std::__shared_count" }
%"class.std::shared_ptr.120" = type { %"class.std::__shared_ptr.121" }
%"class.std::__shared_ptr.121" = type { ptr, %"class.std::__shared_count" }

; Function Attrs: mustprogress nounwind uwtable
define noundef zeroext i1 @_ZNK7rocksdb15BlockBasedTable11IsLastLevelEv(ptr noundef nonnull align 8 dereferenceable(24) %this) #1 align 2 {
entry:
  %this.addr = alloca ptr, align 8
  store ptr %this, ptr %this.addr, align 8
  %this1 = load ptr, ptr %this.addr, align 8
  %rep_ = getelementptr inbounds %"class.rocksdb::BlockBasedTable", ptr %this1, i32 0, i32 1
  %0 = load ptr, ptr %rep_, align 8
  %level = getelementptr inbounds %"struct.rocksdb::BlockBasedTable::Rep", ptr %0, i32 0, i32 26
  %1 = load i32, ptr %level, align 8
  %rep_2 = getelementptr inbounds %"class.rocksdb::BlockBasedTable", ptr %this1, i32 0, i32 1
  %2 = load ptr, ptr %rep_2, align 8
  %ioptions = getelementptr inbounds %"struct.rocksdb::BlockBasedTable::Rep", ptr %2, i32 0, i32 0
  %3 = load ptr, ptr %ioptions, align 8
  %add.ptr = getelementptr inbounds i8, ptr %3, i64 576
  %num_levels = getelementptr inbounds %"struct.rocksdb::ImmutableCFOptions", ptr %add.ptr, i32 0, i32 21
  %4 = load i32, ptr %num_levels, align 8
  %sub = sub nsw i32 %4, 1
  %cmp = icmp eq i32 %1, %sub
  ret i1 %cmp
}