; Function Attrs: mustprogress nofree norecurse nosync nounwind willreturn memory(read, inaccessiblemem: none) uwtable
define noundef zeroext i1 @_ZNK7rocksdb15BlockBasedTable11IsLastLevelEv(ptr nocapture noundef nonnull readonly align 8 dereferenceable(24) %this) local_unnamed_addr #15 align 2 {
entry:
  %rep_ = getelementptr inbounds i8, ptr %this, i64 8
  %0 = load ptr, ptr %rep_, align 8
  %level = getelementptr inbounds i8, ptr %0, i64 616
  %1 = load i32, ptr %level, align 8
  %2 = load ptr, ptr %0, align 8
  %num_levels = getelementptr inbounds i8, ptr %2, i64 744
  %3 = load i32, ptr %num_levels, align 8
  %sub = add nsw i32 %3, -1
  %cmp = icmp eq i32 %1, %sub
  ret i1 %cmp
}